target datalayout = "e-m:e-p270:32:32-p271:32:32-p272:64:64-i64:64-i128:128-f80:128-n8:16:32:64-S128"
target triple = "x86_64-pc-linux-gnu"

%struct.Aig_Obj_t_ = type { %union.anon, ptr, ptr, i64, i32, i32, %union.anon.0 }
%union.anon = type { ptr }
%union.anon.0 = type { ptr }
%struct.Vec_Ptr_t_ = type { i32, i32, ptr }

; Function Attrs: inlinehint nounwind uwtable
define internal ptr @Dch_ObjSim(ptr noundef %0, ptr noundef %1) #2 {
  %3 = alloca ptr, align 8
  %4 = alloca ptr, align 8
  store ptr %0, ptr %3, align 8, !tbaa !9
  store ptr %1, ptr %4, align 8, !tbaa !7
  %5 = load ptr, ptr %3, align 8, !tbaa !9
  %6 = load ptr, ptr %4, align 8, !tbaa !7
  %7 = getelementptr inbounds nuw %struct.Aig_Obj_t_, ptr %6, i32 0, i32 5
  %8 = load i32, ptr %7, align 4, !tbaa !20
  %9 = call ptr @Vec_PtrEntry(ptr noundef %5, i32 noundef %8)
  ret ptr %9
}

; Function Attrs: inlinehint nounwind uwtable
define internal ptr @Vec_PtrEntry(ptr noundef %0, i32 noundef %1) #2 {
  %3 = alloca ptr, align 8
  %4 = alloca i32, align 4
  store ptr %0, ptr %3, align 8, !tbaa !9
  store i32 %1, ptr %4, align 4, !tbaa !11
  %5 = load ptr, ptr %3, align 8, !tbaa !9
  %6 = getelementptr inbounds nuw %struct.Vec_Ptr_t_, ptr %5, i32 0, i32 2
  %7 = load ptr, ptr %6, align 8, !tbaa !18
  %8 = load i32, ptr %4, align 4, !tbaa !11
  %9 = sext i32 %8 to i64
  %10 = getelementptr inbounds ptr, ptr %7, i64 %9
  %11 = load ptr, ptr %10, align 8, !tbaa !3
  ret ptr %11
}

; Function Attrs: nounwind uwtable
define i32 @Dch_NodeHash(ptr noundef %0, ptr noundef %1) #0 {
  %3 = alloca ptr, align 8
  %4 = alloca ptr, align 8
  %5 = alloca ptr, align 8
  %6 = alloca ptr, align 8
  %7 = alloca i32, align 4
  %8 = alloca i32, align 4
  %9 = alloca i32, align 4
  store ptr %0, ptr %3, align 8, !tbaa !3
  store ptr %1, ptr %4, align 8, !tbaa !7
  call void @llvm.lifetime.start.p0(i64 8, ptr %5) #7
  %10 = load ptr, ptr %3, align 8, !tbaa !3
  store ptr %10, ptr %5, align 8, !tbaa !9
  call void @llvm.lifetime.start.p0(i64 8, ptr %6) #7
  call void @llvm.lifetime.start.p0(i64 4, ptr %7) #7
  call void @llvm.lifetime.start.p0(i64 4, ptr %8) #7
  call void @llvm.lifetime.start.p0(i64 4, ptr %9) #7
  %11 = load ptr, ptr %5, align 8, !tbaa !9
  %12 = call ptr @Vec_PtrEntry(ptr noundef %11, i32 noundef 1)
  %13 = load ptr, ptr %5, align 8, !tbaa !9
  %14 = call ptr @Vec_PtrEntry(ptr noundef %13, i32 noundef 0)
  %15 = ptrtoint ptr %12 to i64
  %16 = ptrtoint ptr %14 to i64
  %17 = sub i64 %15, %16
  %18 = sdiv exact i64 %17, 4
  %19 = trunc i64 %18 to i32
  store i32 %19, ptr %9, align 4, !tbaa !11
  store i32 0, ptr %7, align 4, !tbaa !11
  %20 = load ptr, ptr %5, align 8, !tbaa !9
  %21 = load ptr, ptr %4, align 8, !tbaa !7
  %22 = call ptr @Dch_ObjSim(ptr noundef %20, ptr noundef %21)
  store ptr %22, ptr %6, align 8, !tbaa !13
  %23 = load ptr, ptr %4, align 8, !tbaa !7
  %24 = getelementptr inbounds nuw %struct.Aig_Obj_t_, ptr %23, i32 0, i32 3
  %25 = load i64, ptr %24, align 8
  %26 = lshr i64 %25, 3
  %27 = and i64 %26, 1
  %28 = trunc i64 %27 to i32
  %29 = icmp ne i32 %28, 0
  br i1 %29, label %30, label %54

30:                                               ; preds = %2
  store i32 0, ptr %8, align 4, !tbaa !11
  br label %31

31:                                               ; preds = %50, %30
  %32 = load i32, ptr %8, align 4, !tbaa !11
  %33 = load i32, ptr %9, align 4, !tbaa !11
  %34 = icmp slt i32 %32, %33
  br i1 %34, label %35, label %53

35:                                               ; preds = %31
  %36 = load ptr, ptr %6, align 8, !tbaa !13
  %37 = load i32, ptr %8, align 4, !tbaa !11
  %38 = sext i32 %37 to i64
  %39 = getelementptr inbounds i32, ptr %36, i64 %38
  %40 = load i32, ptr %39, align 4, !tbaa !11
  %41 = xor i32 %40, -1
  %42 = load i32, ptr %8, align 4, !tbaa !11
  %43 = and i32 %42, 127
  %44 = sext i32 %43 to i64
  %45 = getelementptr inbounds [128 x i32], ptr @Dch_NodeHash.s_FPrimes, i64 0, i64 %44
  %46 = load i32, ptr %45, align 4, !tbaa !11
  %47 = mul i32 %41, %46
  %48 = load i32, ptr %7, align 4, !tbaa !11
  %49 = xor i32 %48, %47
  store i32 %49, ptr %7, align 4, !tbaa !11
  br label %50

50:                                               ; preds = %35
  %51 = load i32, ptr %8, align 4, !tbaa !11
  %52 = add nsw i32 %51, 1
  store i32 %52, ptr %8, align 4, !tbaa !11
  br label %31, !llvm.loop !15

53:                                               ; preds = %31
  br label %77

54:                                               ; preds = %2
  store i32 0, ptr %8, align 4, !tbaa !11
  br label %55

55:                                               ; preds = %73, %54
  %56 = load i32, ptr %8, align 4, !tbaa !11
  %57 = load i32, ptr %9, align 4, !tbaa !11
  %58 = icmp slt i32 %56, %57
  br i1 %58, label %59, label %76

59:                                               ; preds = %55
  %60 = load ptr, ptr %6, align 8, !tbaa !13
  %61 = load i32, ptr %8, align 4, !tbaa !11
  %62 = sext i32 %61 to i64
  %63 = getelementptr inbounds i32, ptr %60, i64 %62
  %64 = load i32, ptr %63, align 4, !tbaa !11
  %65 = load i32, ptr %8, align 4, !tbaa !11
  %66 = and i32 %65, 127
  %67 = sext i32 %66 to i64
  %68 = getelementptr inbounds [128 x i32], ptr @Dch_NodeHash.s_FPrimes, i64 0, i64 %67
  %69 = load i32, ptr %68, align 4, !tbaa !11
  %70 = mul i32 %64, %69
  %71 = load i32, ptr %7, align 4, !tbaa !11
  %72 = xor i32 %71, %70
  store i32 %72, ptr %7, align 4, !tbaa !11
  br label %73

73:                                               ; preds = %59
  %74 = load i32, ptr %8, align 4, !tbaa !11
  %75 = add nsw i32 %74, 1
  store i32 %75, ptr %8, align 4, !tbaa !11
  br label %55, !llvm.loop !17

76:                                               ; preds = %55
  br label %77

77:                                               ; preds = %76, %53
  %78 = load i32, ptr %7, align 4, !tbaa !11
  call void @llvm.lifetime.end.p0(i64 4, ptr %9) #7
  call void @llvm.lifetime.end.p0(i64 4, ptr %8) #7
  call void @llvm.lifetime.end.p0(i64 4, ptr %7) #7
  call void @llvm.lifetime.end.p0(i64 8, ptr %6) #7
  call void @llvm.lifetime.end.p0(i64 8, ptr %5) #7
  ret i32 %78
}