; Function Attrs: nofree norecurse nosync nounwind memory(read, inaccessiblemem: none) uwtable
define i32 @Dch_NodeHash(ptr noundef readonly captures(none) %0, ptr noundef readonly captures(none) %1) #1 {
  %3 = getelementptr i8, ptr %0, i64 8
  %.val = load ptr, ptr %3, align 8, !tbaa !3
  %4 = getelementptr inbounds nuw i8, ptr %.val, i64 8
  %5 = load ptr, ptr %4, align 8, !tbaa !9
  %6 = load ptr, ptr %.val, align 8, !tbaa !9
  %7 = ptrtoint ptr %5 to i64
  %8 = ptrtoint ptr %6 to i64
  %9 = sub i64 %7, %8
  %10 = lshr i64 %9, 2
  %11 = trunc i64 %10 to i32
  %12 = getelementptr i8, ptr %1, i64 36
  %.val24 = load i32, ptr %12, align 4, !tbaa !10
  %13 = sext i32 %.val24 to i64
  %14 = getelementptr inbounds ptr, ptr %.val, i64 %13
  %15 = load ptr, ptr %14, align 8, !tbaa !9
  %16 = getelementptr inbounds nuw i8, ptr %1, i64 24
  %17 = load i64, ptr %16, align 8
  %18 = and i64 %17, 8
  %.not = icmp eq i64 %18, 0
  %19 = icmp sgt i32 %11, 0
  br i1 %.not, label %.preheader, label %.preheader25

.preheader25:                                     ; preds = %2
  br i1 %19, label %.lr.ph.preheader, label %.loopexit

.lr.ph.preheader:                                 ; preds = %.preheader25
  %wide.trip.count = and i64 %10, 2147483647
  br label %.lr.ph

.preheader:                                       ; preds = %2
  br i1 %19, label %.lr.ph31.preheader, label %.loopexit

.lr.ph31.preheader:                               ; preds = %.preheader
  %wide.trip.count39 = and i64 %10, 2147483647
  br label %.lr.ph31

.lr.ph:                                           ; preds = %.lr.ph.preheader, %.lr.ph
  %indvars.iv = phi i64 [ 0, %.lr.ph.preheader ], [ %indvars.iv.next, %.lr.ph ]
  %.028 = phi i32 [ 0, %.lr.ph.preheader ], [ %27, %.lr.ph ]
  %20 = getelementptr inbounds nuw i32, ptr %15, i64 %indvars.iv
  %21 = load i32, ptr %20, align 4, !tbaa !13
  %22 = xor i32 %21, -1
  %23 = and i64 %indvars.iv, 127
  %24 = getelementptr inbounds nuw [128 x i32], ptr @Dch_NodeHash.s_FPrimes, i64 0, i64 %23
  %25 = load i32, ptr %24, align 4, !tbaa !13
  %26 = mul i32 %25, %22
  %27 = xor i32 %26, %.028
  %indvars.iv.next = add nuw nsw i64 %indvars.iv, 1
  %exitcond.not = icmp eq i64 %indvars.iv.next, %wide.trip.count
  br i1 %exitcond.not, label %.loopexit, label %.lr.ph, !llvm.loop !14

.lr.ph31:                                         ; preds = %.lr.ph31.preheader, %.lr.ph31
  %indvars.iv36 = phi i64 [ 0, %.lr.ph31.preheader ], [ %indvars.iv.next37, %.lr.ph31 ]
  %.230 = phi i32 [ 0, %.lr.ph31.preheader ], [ %34, %.lr.ph31 ]
  %28 = getelementptr inbounds nuw i32, ptr %15, i64 %indvars.iv36
  %29 = load i32, ptr %28, align 4, !tbaa !13
  %30 = and i64 %indvars.iv36, 127
  %31 = getelementptr inbounds nuw [128 x i32], ptr @Dch_NodeHash.s_FPrimes, i64 0, i64 %30
  %32 = load i32, ptr %31, align 4, !tbaa !13
  %33 = mul i32 %32, %29
  %34 = xor i32 %33, %.230
  %indvars.iv.next37 = add nuw nsw i64 %indvars.iv36, 1
  %exitcond40.not = icmp eq i64 %indvars.iv.next37, %wide.trip.count39
  br i1 %exitcond40.not, label %.loopexit, label %.lr.ph31, !llvm.loop !16

.loopexit:                                        ; preds = %.lr.ph, %.lr.ph31, %.preheader25, %.preheader
  %.1 = phi i32 [ 0, %.preheader ], [ 0, %.preheader25 ], [ %34, %.lr.ph31 ], [ %27, %.lr.ph ]
  ret i32 %.1
}